; Function Attrs: mustprogress nofree nounwind willreturn memory(write, argmem: readwrite) uwtable
define noundef float @_Z11GetVelocityN3vcg6Point3IfEES1_P6CFaceOS1_ff(<2 x float> %0, float %1, <2 x float> %2, float %3, ptr nocapture noundef readonly %4, <2 x float> %5, float %6, float noundef %7, float noundef %8) local_unnamed_addr #12 {
  %10 = getelementptr inbounds i8, ptr %4, i64 36
  %.sroa.022.0.copyload = load float, ptr %10, align 4
  %.sroa.324.0..sroa_idx = getelementptr inbounds i8, ptr %4, i64 40
  %.sroa.324.0.copyload = load float, ptr %.sroa.324.0..sroa_idx, align 4
  %.sroa.5.0..sroa_idx = getelementptr inbounds i8, ptr %4, i64 44
  %.sroa.5.0.copyload = load float, ptr %.sroa.5.0..sroa_idx, align 4
  %.sroa.027.0.vec.extract = extractelement <2 x float> %5, i64 0
  %.sroa.027.4.vec.extract = extractelement <2 x float> %5, i64 1
  %11 = fmul float %.sroa.027.4.vec.extract, %.sroa.324.0.copyload
  %12 = tail call float @llvm.fmuladd.f32(float %.sroa.022.0.copyload, float %.sroa.027.0.vec.extract, float %11)
  %13 = tail call float @llvm.fmuladd.f32(float %.sroa.5.0.copyload, float %6, float %12)
  %14 = fneg float %13
  %15 = tail call float @llvm.fmuladd.f32(float %14, float %.sroa.022.0.copyload, float %.sroa.027.0.vec.extract)
  %16 = tail call float @llvm.fmuladd.f32(float %14, float %.sroa.324.0.copyload, float %.sroa.027.4.vec.extract)
  %17 = tail call float @llvm.fmuladd.f32(float %14, float %.sroa.5.0.copyload, float %6)
  %18 = fmul float %16, %16
  %19 = tail call float @llvm.fmuladd.f32(float %15, float %15, float %18)
  %20 = tail call float @llvm.fmuladd.f32(float %17, float %17, float %19)
  %sqrt.i = tail call noundef float @llvm.sqrt.f32(float %20)
  %21 = fcmp oeq float %sqrt.i, 0.000000e+00
  br i1 %21, label %44, label %22

22:                                               ; preds = %9
  %23 = fsub float %1, %3
  %24 = fsub <2 x float> %0, %2
  %25 = extractelement <2 x float> %24, i64 0
  %26 = fsub <2 x float> %0, %2
  %27 = fmul <2 x float> %26, %26
  %28 = extractelement <2 x float> %27, i64 1
  %29 = tail call float @llvm.fmuladd.f32(float %25, float %25, float %28)
  %30 = tail call float @llvm.fmuladd.f32(float %23, float %23, float %29)
  %sqrt.i.i = tail call noundef float @llvm.sqrt.f32(float %30)
  %31 = fdiv float %15, %7
  %32 = fdiv float %16, %7
  %33 = fdiv float %17, %7
  %34 = fmul float %32, %32
  %35 = tail call float @llvm.fmuladd.f32(float %31, float %31, float %34)
  %36 = tail call float @llvm.fmuladd.f32(float %33, float %33, float %35)
  %sqrt.i16 = tail call noundef float @llvm.sqrt.f32(float %36)
  %37 = fpext float %8 to double
  %square = fmul double %37, %37
  %38 = fmul float %sqrt.i16, 2.000000e+00
  %39 = fmul float %sqrt.i.i, %38
  %40 = fpext float %39 to double
  %41 = fadd double %square, %40
  %42 = tail call noundef double @sqrt(double noundef %41) #27
  %43 = fptrunc double %42 to float
  br label %44

44:                                               ; preds = %9, %22
  %.0 = phi float [ %43, %22 ], [ 0.000000e+00, %9 ]
  ret float %.0
}